target datalayout = "e-m:e-p270:32:32-p271:32:32-p272:64:64-i64:64-i128:128-f80:128-n8:16:32:64-S128"
target triple = "x86_64-unknown-linux-gnu"

%union.pthread_mutex_t = type { %struct.__pthread_mutex_s }
%struct.__pthread_mutex_s = type { i32, i32, i32, i32, i32, i16, i16, %struct.__pthread_internal_list }
%struct.__pthread_internal_list = type { ptr, ptr }
%"class.std::__cxx11::basic_string" = type { %"struct.std::__cxx11::basic_string<char>::_Alloc_hider", i64, %union.anon.0 }
%"struct.std::__cxx11::basic_string<char>::_Alloc_hider" = type { ptr }
%union.anon.0 = type { i64, [8 x i8] }
%"class.OpenImageIO_v2_6_0::Filesystem::IOProxy" = type { ptr, %"class.std::__cxx11::basic_string", i64, i32, %"class.std::__cxx11::basic_string" }
%"class.OpenImageIO_v2_6_0::Filesystem::IOFile" = type { %"class.OpenImageIO_v2_6_0::Filesystem::IOProxy", ptr, i64, i8, %"class.std::mutex" }
%"class.std::mutex" = type { %"class.std::__mutex_base" }
%"class.std::__mutex_base" = type { %union.pthread_mutex_t }

; Function Attrs: mustprogress uwtable
define void @_ZNK18OpenImageIO_v2_6_010Filesystem6IOFile5flushEv(ptr noundef nonnull align 8 dereferenceable(152) %this) unnamed_addr #6 align 2 {
entry:
  %this.addr = alloca ptr, align 8
  store ptr %this, ptr %this.addr, align 8
  %this1 = load ptr, ptr %this.addr, align 8
  %m_file = getelementptr inbounds %"class.OpenImageIO_v2_6_0::Filesystem::IOFile", ptr %this1, i32 0, i32 1
  %0 = load ptr, ptr %m_file, align 8
  %tobool = icmp ne ptr %0, null
  br i1 %tobool, label %if.then, label %if.end

if.then:                                          ; preds = %entry
  %m_file2 = getelementptr inbounds %"class.OpenImageIO_v2_6_0::Filesystem::IOFile", ptr %this1, i32 0, i32 1
  %1 = load ptr, ptr %m_file2, align 8
  %call = call i32 @fflush(ptr noundef %1)
  br label %if.end

if.end:                                           ; preds = %if.then, %entry
  ret void
}