; Function Attrs: mustprogress nofree nounwind uwtable
define void @_ZNK18OpenImageIO_v2_6_010Filesystem6IOFile5flushEv(ptr nocapture noundef nonnull readonly align 8 dereferenceable(152) %this) unnamed_addr #10 align 2 {
entry:
  %m_file = getelementptr inbounds i8, ptr %this, i64 88
  %0 = load ptr, ptr %m_file, align 8
  %tobool.not = icmp eq ptr %0, null
  br i1 %tobool.not, label %if.end, label %if.then

if.then:                                          ; preds = %entry
  %call = tail call i32 @fflush(ptr noundef nonnull %0)
  br label %if.end

if.end:                                           ; preds = %if.then, %entry
  ret void
}